target datalayout = "e-m:e-p270:32:32-p271:32:32-p272:64:64-i64:64-i128:128-f80:128-n8:16:32:64-S128"
target triple = "x86_64-pc-linux-gnu"

%struct.ProgressBarStruct = type { i32, i32, i32, i32, ptr }

@.str = private unnamed_addr constant [4 x i8] c"%s \00", align 1
@.str.1 = private unnamed_addr constant [2 x i8] c"-\00", align 1
@.str.2 = private unnamed_addr constant [2 x i8] c">\00", align 1
@.str.3 = private unnamed_addr constant [2 x i8] c" \00", align 1
@.str.4 = private unnamed_addr constant [2 x i8] c"\0D\00", align 1
@stdout = external global ptr, align 8

; Function Attrs: nounwind uwtable
define internal void @Extra_ProgressBarShow(ptr noundef %0, ptr noundef %1) #0 {
  %3 = alloca ptr, align 8
  %4 = alloca ptr, align 8
  %5 = alloca i32, align 4
  %6 = alloca i32, align 4
  store ptr %0, ptr %3, align 8, !tbaa !10
  store ptr %1, ptr %4, align 8, !tbaa !18
  call void @llvm.lifetime.start.p0(i64 4, ptr %5) #7
  %7 = load ptr, ptr %3, align 8, !tbaa !10
  %8 = icmp eq ptr %7, null
  br i1 %8, label %9, label %10

9:                                                ; preds = %2
  store i32 1, ptr %6, align 4
  br label %83

10:                                               ; preds = %2
  %11 = call i32 (...) @Abc_FrameIsBatchMode()
  %12 = icmp ne i32 %11, 0
  br i1 %12, label %13, label %14

13:                                               ; preds = %10
  store i32 1, ptr %6, align 4
  br label %83

14:                                               ; preds = %10
  %15 = load ptr, ptr %4, align 8, !tbaa !18
  %16 = icmp ne ptr %15, null
  br i1 %16, label %17, label %23

17:                                               ; preds = %14
  %18 = load ptr, ptr %3, align 8, !tbaa !10
  %19 = getelementptr inbounds nuw %struct.ProgressBarStruct, ptr %18, i32 0, i32 4
  %20 = load ptr, ptr %19, align 8, !tbaa !12
  %21 = load ptr, ptr %4, align 8, !tbaa !18
  %22 = call i32 (ptr, ptr, ...) @fprintf(ptr noundef %20, ptr noundef @.str, ptr noundef %21) #7
  br label %23

23:                                               ; preds = %17, %14
  %24 = load ptr, ptr %4, align 8, !tbaa !18
  %25 = icmp ne ptr %24, null
  br i1 %25, label %26, label %30

26:                                               ; preds = %23
  %27 = load ptr, ptr %4, align 8, !tbaa !18
  %28 = call i64 @strlen(ptr noundef %27) #9
  %29 = add i64 %28, 1
  br label %31

30:                                               ; preds = %23
  br label %31

31:                                               ; preds = %30, %26
  %32 = phi i64 [ %29, %26 ], [ 0, %30 ]
  %33 = trunc i64 %32 to i32
  store i32 %33, ptr %5, align 4, !tbaa !8
  br label %34

34:                                               ; preds = %45, %31
  %35 = load i32, ptr %5, align 4, !tbaa !8
  %36 = load ptr, ptr %3, align 8, !tbaa !10
  %37 = getelementptr inbounds nuw %struct.ProgressBarStruct, ptr %36, i32 0, i32 3
  %38 = load i32, ptr %37, align 4, !tbaa !16
  %39 = icmp slt i32 %35, %38
  br i1 %39, label %40, label %48

40:                                               ; preds = %34
  %41 = load ptr, ptr %3, align 8, !tbaa !10
  %42 = getelementptr inbounds nuw %struct.ProgressBarStruct, ptr %41, i32 0, i32 4
  %43 = load ptr, ptr %42, align 8, !tbaa !12
  %44 = call i32 (ptr, ptr, ...) @fprintf(ptr noundef %43, ptr noundef @.str.1) #7
  br label %45

45:                                               ; preds = %40
  %46 = load i32, ptr %5, align 4, !tbaa !8
  %47 = add nsw i32 %46, 1
  store i32 %47, ptr %5, align 4, !tbaa !8
  br label %34, !llvm.loop !20

48:                                               ; preds = %34
  %49 = load i32, ptr %5, align 4, !tbaa !8
  %50 = load ptr, ptr %3, align 8, !tbaa !10
  %51 = getelementptr inbounds nuw %struct.ProgressBarStruct, ptr %50, i32 0, i32 3
  %52 = load i32, ptr %51, align 4, !tbaa !16
  %53 = icmp eq i32 %49, %52
  br i1 %53, label %54, label %59

54:                                               ; preds = %48
  %55 = load ptr, ptr %3, align 8, !tbaa !10
  %56 = getelementptr inbounds nuw %struct.ProgressBarStruct, ptr %55, i32 0, i32 4
  %57 = load ptr, ptr %56, align 8, !tbaa !12
  %58 = call i32 (ptr, ptr, ...) @fprintf(ptr noundef %57, ptr noundef @.str.2) #7
  br label %59

59:                                               ; preds = %54, %48
  %60 = load i32, ptr %5, align 4, !tbaa !8
  %61 = add nsw i32 %60, 1
  store i32 %61, ptr %5, align 4, !tbaa !8
  br label %62

62:                                               ; preds = %73, %59
  %63 = load i32, ptr %5, align 4, !tbaa !8
  %64 = load ptr, ptr %3, align 8, !tbaa !10
  %65 = getelementptr inbounds nuw %struct.ProgressBarStruct, ptr %64, i32 0, i32 2
  %66 = load i32, ptr %65, align 8, !tbaa !15
  %67 = icmp sle i32 %63, %66
  br i1 %67, label %68, label %76

68:                                               ; preds = %62
  %69 = load ptr, ptr %3, align 8, !tbaa !10
  %70 = getelementptr inbounds nuw %struct.ProgressBarStruct, ptr %69, i32 0, i32 4
  %71 = load ptr, ptr %70, align 8, !tbaa !12
  %72 = call i32 (ptr, ptr, ...) @fprintf(ptr noundef %71, ptr noundef @.str.3) #7
  br label %73

73:                                               ; preds = %68
  %74 = load i32, ptr %5, align 4, !tbaa !8
  %75 = add nsw i32 %74, 1
  store i32 %75, ptr %5, align 4, !tbaa !8
  br label %62, !llvm.loop !22

76:                                               ; preds = %62
  %77 = load ptr, ptr %3, align 8, !tbaa !10
  %78 = getelementptr inbounds nuw %struct.ProgressBarStruct, ptr %77, i32 0, i32 4
  %79 = load ptr, ptr %78, align 8, !tbaa !12
  %80 = call i32 (ptr, ptr, ...) @fprintf(ptr noundef %79, ptr noundef @.str.4) #7
  %81 = load ptr, ptr @stdout, align 8, !tbaa !3
  %82 = call i32 @fflush(ptr noundef %81)
  store i32 0, ptr %6, align 4
  br label %83

83:                                               ; preds = %76, %13, %9
  call void @llvm.lifetime.end.p0(i64 4, ptr %5) #7
  %84 = load i32, ptr %6, align 4
  switch i32 %84, label %86 [
    i32 0, label %85
    i32 1, label %85
  ]

85:                                               ; preds = %83, %83
  ret void

86:                                               ; preds = %83
  unreachable
}