; Function Attrs: nounwind uwtable
define internal fastcc void @Extra_ProgressBarShow(ptr noundef readonly %0, ptr noundef %1) unnamed_addr #0 {
  %3 = icmp eq ptr %0, null
  br i1 %3, label %39, label %4

4:                                                ; preds = %2
  %5 = tail call i32 (...) @Abc_FrameIsBatchMode() #7
  %.not = icmp eq i32 %5, 0
  br i1 %.not, label %6, label %39

6:                                                ; preds = %4
  %.not22 = icmp eq ptr %1, null
  br i1 %.not22, label %.critedge, label %7

7:                                                ; preds = %6
  %8 = getelementptr inbounds nuw i8, ptr %0, i64 16
  %9 = load ptr, ptr %8, align 8, !tbaa !3
  %10 = tail call i32 (ptr, ptr, ...) @fprintf(ptr noundef %9, ptr noundef nonnull @.str, ptr noundef nonnull %1) #7
  %11 = tail call i64 @strlen(ptr noundef nonnull dereferenceable(1) %1) #8
  %12 = trunc i64 %11 to i32
  %13 = add i32 %12, 1
  br label %.critedge

.critedge:                                        ; preds = %6, %7
  %14 = phi i32 [ %13, %7 ], [ 0, %6 ]
  %15 = getelementptr inbounds nuw i8, ptr %0, i64 12
  %16 = load i32, ptr %15, align 4, !tbaa !12
  %17 = icmp slt i32 %14, %16
  br i1 %17, label %.lr.ph, label %._crit_edge

.lr.ph:                                           ; preds = %.critedge
  %18 = getelementptr inbounds nuw i8, ptr %0, i64 16
  br label %19

19:                                               ; preds = %.lr.ph, %19
  %.027 = phi i32 [ %14, %.lr.ph ], [ %21, %19 ]
  %20 = load ptr, ptr %18, align 8, !tbaa !3
  %fputc26 = tail call i32 @fputc(i32 45, ptr %20)
  %21 = add nsw i32 %.027, 1
  %22 = load i32, ptr %15, align 4, !tbaa !12
  %23 = icmp slt i32 %21, %22
  br i1 %23, label %19, label %._crit_edge, !llvm.loop !14

._crit_edge:                                      ; preds = %19, %.critedge
  %.0.lcssa = phi i32 [ %14, %.critedge ], [ %21, %19 ]
  %.lcssa = phi i32 [ %16, %.critedge ], [ %22, %19 ]
  %24 = icmp eq i32 %.0.lcssa, %.lcssa
  br i1 %24, label %25, label %28

25:                                               ; preds = %._crit_edge
  %26 = getelementptr inbounds nuw i8, ptr %0, i64 16
  %27 = load ptr, ptr %26, align 8, !tbaa !3
  %fputc = tail call i32 @fputc(i32 62, ptr %27)
  br label %28

28:                                               ; preds = %25, %._crit_edge
  %29 = getelementptr inbounds nuw i8, ptr %0, i64 8
  %30 = load i32, ptr %29, align 8, !tbaa !11
  %.not23.not29 = icmp slt i32 %.0.lcssa, %30
  br i1 %.not23.not29, label %.lr.ph32, label %._crit_edge33

.lr.ph32:                                         ; preds = %28
  %31 = getelementptr inbounds nuw i8, ptr %0, i64 16
  br label %32

32:                                               ; preds = %.lr.ph32, %32
  %.1.in30 = phi i32 [ %.0.lcssa, %.lr.ph32 ], [ %.1, %32 ]
  %.1 = add nsw i32 %.1.in30, 1
  %33 = load ptr, ptr %31, align 8, !tbaa !3
  %fputc25 = tail call i32 @fputc(i32 32, ptr %33)
  %34 = load i32, ptr %29, align 8, !tbaa !11
  %.not23.not = icmp slt i32 %.1, %34
  br i1 %.not23.not, label %32, label %._crit_edge33, !llvm.loop !16

._crit_edge33:                                    ; preds = %32, %28
  %35 = getelementptr inbounds nuw i8, ptr %0, i64 16
  %36 = load ptr, ptr %35, align 8, !tbaa !3
  %fputc24 = tail call i32 @fputc(i32 13, ptr %36)
  %37 = load ptr, ptr @stdout, align 8, !tbaa !17
  %38 = tail call i32 @fflush(ptr noundef %37)
  br label %39

39:                                               ; preds = %4, %2, %._crit_edge33
  ret void
}